target datalayout = "e-m:e-p270:32:32-p271:32:32-p272:64:64-i64:64-i128:128-f80:128-n8:16:32:64-S128"
target triple = "x86_64-pc-linux-gnu"

%struct.wtap_reader = type { i32, i64, i64, i32, %struct.wtap_reader_buf, %struct.wtap_reader_buf, i8, i64, i64, i32, i32, i8, i64, i8, i32, ptr, %struct.z_stream_s, i8, ptr, ptr, %struct.LZ4F_frameInfo_t, [19 x i8], ptr, ptr }
%struct.wtap_reader_buf = type { ptr, ptr, i32 }
%struct.z_stream_s = type { ptr, i32, i64, ptr, i32, i64, ptr, ptr, ptr, ptr, ptr, i32, i64, i64 }
%struct.LZ4F_frameInfo_t = type { i32, i32, i32, i32, i64, i32, i32 }

; Function Attrs: null_pointer_is_valid sspstrong uwtable
define hidden void @file_close(ptr noundef %0) #0 {
  %2 = alloca ptr, align 8
  %3 = alloca i32, align 4
  store ptr %0, ptr %2, align 8
  call void @llvm.lifetime.start.p0(i64 4, ptr %3) #14
  %4 = load ptr, ptr %2, align 8
  %5 = getelementptr inbounds nuw %struct.wtap_reader, ptr %4, i32 0, i32 0
  %6 = load i32, ptr %5, align 8
  store i32 %6, ptr %3, align 4
  %7 = load ptr, ptr %2, align 8
  %8 = getelementptr inbounds nuw %struct.wtap_reader, ptr %7, i32 0, i32 3
  %9 = load i32, ptr %8, align 8
  %10 = icmp ne i32 %9, 0
  br i1 %10, label %11, label %31

11:                                               ; preds = %1
  %12 = load ptr, ptr %2, align 8
  %13 = getelementptr inbounds nuw %struct.wtap_reader, ptr %12, i32 0, i32 16
  %14 = call i32 @inflateEnd(ptr noundef %13)
  %15 = load ptr, ptr %2, align 8
  %16 = getelementptr inbounds nuw %struct.wtap_reader, ptr %15, i32 0, i32 18
  %17 = load ptr, ptr %16, align 8
  %18 = call i64 @ZSTD_freeDCtx(ptr noundef %17)
  %19 = load ptr, ptr %2, align 8
  %20 = getelementptr inbounds nuw %struct.wtap_reader, ptr %19, i32 0, i32 19
  %21 = load ptr, ptr %20, align 8
  %22 = call i64 @LZ4F_freeDecompressionContext(ptr noundef %21)
  %23 = load ptr, ptr %2, align 8
  %24 = getelementptr inbounds nuw %struct.wtap_reader, ptr %23, i32 0, i32 5
  %25 = getelementptr inbounds nuw %struct.wtap_reader_buf, ptr %24, i32 0, i32 0
  %26 = load ptr, ptr %25, align 8
  call void @g_free(ptr noundef %26)
  %27 = load ptr, ptr %2, align 8
  %28 = getelementptr inbounds nuw %struct.wtap_reader, ptr %27, i32 0, i32 4
  %29 = getelementptr inbounds nuw %struct.wtap_reader_buf, ptr %28, i32 0, i32 0
  %30 = load ptr, ptr %29, align 8
  call void @g_free(ptr noundef %30)
  br label %31

31:                                               ; preds = %11, %1
  %32 = load ptr, ptr %2, align 8
  %33 = getelementptr inbounds nuw %struct.wtap_reader, ptr %32, i32 0, i32 23
  %34 = load ptr, ptr %33, align 8
  call void @g_free(ptr noundef %34)
  %35 = load ptr, ptr %2, align 8
  %36 = getelementptr inbounds nuw %struct.wtap_reader, ptr %35, i32 0, i32 14
  store i32 0, ptr %36, align 4
  %37 = load ptr, ptr %2, align 8
  %38 = getelementptr inbounds nuw %struct.wtap_reader, ptr %37, i32 0, i32 15
  store ptr null, ptr %38, align 8
  %39 = load ptr, ptr %2, align 8
  call void @g_free(ptr noundef %39)
  %40 = load i32, ptr %3, align 4
  %41 = icmp ne i32 %40, -1
  br i1 %41, label %42, label %45

42:                                               ; preds = %31
  %43 = load i32, ptr %3, align 4
  %44 = call i32 @close(i32 noundef %43)
  br label %45

45:                                               ; preds = %42, %31
  call void @llvm.lifetime.end.p0(i64 4, ptr %3) #14
  ret void
}