; Function Attrs: null_pointer_is_valid sspstrong uwtable
define hidden void @file_close(ptr noundef %0) local_unnamed_addr #0 {
  %2 = load i32, ptr %0, align 8
  %3 = getelementptr inbounds nuw i8, ptr %0, i64 24
  %4 = load i32, ptr %3, align 8
  %.not = icmp eq i32 %4, 0
  br i1 %.not, label %18, label %5

5:                                                ; preds = %1
  %6 = getelementptr inbounds nuw i8, ptr %0, i64 144
  %7 = tail call i32 @inflateEnd(ptr noundef nonnull %6)
  %8 = getelementptr inbounds nuw i8, ptr %0, i64 264
  %9 = load ptr, ptr %8, align 8
  %10 = tail call i64 @ZSTD_freeDCtx(ptr noundef %9)
  %11 = getelementptr inbounds nuw i8, ptr %0, i64 272
  %12 = load ptr, ptr %11, align 8
  %13 = tail call i64 @LZ4F_freeDecompressionContext(ptr noundef %12)
  %14 = getelementptr inbounds nuw i8, ptr %0, i64 56
  %15 = load ptr, ptr %14, align 8
  tail call void @g_free(ptr noundef %15)
  %16 = getelementptr inbounds nuw i8, ptr %0, i64 32
  %17 = load ptr, ptr %16, align 8
  tail call void @g_free(ptr noundef %17)
  br label %18

18:                                               ; preds = %5, %1
  %19 = getelementptr inbounds nuw i8, ptr %0, i64 344
  %20 = load ptr, ptr %19, align 8
  tail call void @g_free(ptr noundef %20)
  %21 = getelementptr inbounds nuw i8, ptr %0, i64 132
  store i32 0, ptr %21, align 4
  %22 = getelementptr inbounds nuw i8, ptr %0, i64 136
  store ptr null, ptr %22, align 8
  tail call void @g_free(ptr noundef %0)
  %.not12 = icmp eq i32 %2, -1
  br i1 %.not12, label %25, label %23

23:                                               ; preds = %18
  %24 = tail call i32 @close(i32 noundef %2)
  br label %25

25:                                               ; preds = %23, %18
  ret void
}